target datalayout = "e-m:e-p270:32:32-p271:32:32-p272:64:64-i64:64-i128:128-f80:128-n8:16:32:64-S128"
target triple = "x86_64-pc-linux-gnu"

%struct.SSL_TEST_CTX = type { i32, i32, i32, i32, i32, %struct.SSL_TEST_EXTRA_CONF, %struct.SSL_TEST_EXTRA_CONF, i32, i32, i32, i32, i32, i32, i32, ptr, ptr, i32, i32, i32, i32, i32, ptr, i32, i32, i32, ptr, i32, i32, i32, i32, i32, ptr, ptr, ptr, ptr }
%struct.SSL_TEST_EXTRA_CONF = type { %struct.SSL_TEST_CLIENT_CONF, %struct.SSL_TEST_SERVER_CONF, %struct.SSL_TEST_SERVER_CONF }
%struct.SSL_TEST_CLIENT_CONF = type { i32, i32, i32, ptr, ptr, i32, ptr, ptr, ptr, i32, i32 }
%struct.SSL_TEST_SERVER_CONF = type { i32, ptr, ptr, i32, i32, ptr, ptr, i32, ptr }

@.str = private unnamed_addr constant [39 x i8] c"../openssl/test/helpers/ssl_test_ctx.c\00", align 1

; Function Attrs: inlinehint nounwind uwtable
define internal ptr @ossl_check_X509_NAME_freefunc_type(ptr noundef %0) #3 {
  %2 = alloca ptr, align 8
  store ptr %0, ptr %2, align 8, !tbaa !8
  %3 = load ptr, ptr %2, align 8, !tbaa !8
  ret ptr %3
}

; Function Attrs: inlinehint nounwind uwtable
define internal ptr @ossl_check_X509_NAME_sk_type(ptr noundef %0) #3 {
  %2 = alloca ptr, align 8
  store ptr %0, ptr %2, align 8, !tbaa !35
  %3 = load ptr, ptr %2, align 8, !tbaa !35
  ret ptr %3
}

; Function Attrs: nounwind uwtable
define internal void @ssl_test_ctx_free_extra_data(ptr noundef %0) #0 {
  %2 = alloca ptr, align 8
  store ptr %0, ptr %2, align 8, !tbaa !8
  %3 = load ptr, ptr %2, align 8, !tbaa !8
  %4 = getelementptr inbounds nuw %struct.SSL_TEST_CTX, ptr %3, i32 0, i32 5
  call void @ssl_test_extra_conf_free_data(ptr noundef %4)
  %5 = load ptr, ptr %2, align 8, !tbaa !8
  %6 = getelementptr inbounds nuw %struct.SSL_TEST_CTX, ptr %5, i32 0, i32 6
  call void @ssl_test_extra_conf_free_data(ptr noundef %6)
  ret void
}

; Function Attrs: nounwind uwtable
define dso_local void @SSL_TEST_CTX_free(ptr noundef %0) #0 {
  %2 = alloca ptr, align 8
  store ptr %0, ptr %2, align 8, !tbaa !8
  %3 = load ptr, ptr %2, align 8, !tbaa !8
  %4 = icmp eq ptr %3, null
  br i1 %4, label %5, label %6

5:                                                ; preds = %1
  br label %34

6:                                                ; preds = %1
  %7 = load ptr, ptr %2, align 8, !tbaa !8
  call void @ssl_test_ctx_free_extra_data(ptr noundef %7)
  %8 = load ptr, ptr %2, align 8, !tbaa !8
  %9 = getelementptr inbounds nuw %struct.SSL_TEST_CTX, ptr %8, i32 0, i32 14
  %10 = load ptr, ptr %9, align 8, !tbaa !28
  call void @CRYPTO_free(ptr noundef %10, ptr noundef @.str, i32 noundef 782)
  %11 = load ptr, ptr %2, align 8, !tbaa !8
  %12 = getelementptr inbounds nuw %struct.SSL_TEST_CTX, ptr %11, i32 0, i32 15
  %13 = load ptr, ptr %12, align 8, !tbaa !29
  call void @CRYPTO_free(ptr noundef %13, ptr noundef @.str, i32 noundef 783)
  %14 = load ptr, ptr %2, align 8, !tbaa !8
  %15 = getelementptr inbounds nuw %struct.SSL_TEST_CTX, ptr %14, i32 0, i32 32
  %16 = load ptr, ptr %15, align 8, !tbaa !30
  call void @CRYPTO_free(ptr noundef %16, ptr noundef @.str, i32 noundef 784)
  %17 = load ptr, ptr %2, align 8, !tbaa !8
  %18 = getelementptr inbounds nuw %struct.SSL_TEST_CTX, ptr %17, i32 0, i32 21
  %19 = load ptr, ptr %18, align 8, !tbaa !31
  %20 = call ptr @ossl_check_X509_NAME_sk_type(ptr noundef %19)
  %21 = call ptr @ossl_check_X509_NAME_freefunc_type(ptr noundef @X509_NAME_free)
  call void @OPENSSL_sk_pop_free(ptr noundef %20, ptr noundef %21)
  %22 = load ptr, ptr %2, align 8, !tbaa !8
  %23 = getelementptr inbounds nuw %struct.SSL_TEST_CTX, ptr %22, i32 0, i32 25
  %24 = load ptr, ptr %23, align 8, !tbaa !32
  %25 = call ptr @ossl_check_X509_NAME_sk_type(ptr noundef %24)
  %26 = call ptr @ossl_check_X509_NAME_freefunc_type(ptr noundef @X509_NAME_free)
  call void @OPENSSL_sk_pop_free(ptr noundef %25, ptr noundef %26)
  %27 = load ptr, ptr %2, align 8, !tbaa !8
  %28 = getelementptr inbounds nuw %struct.SSL_TEST_CTX, ptr %27, i32 0, i32 31
  %29 = load ptr, ptr %28, align 8, !tbaa !33
  call void @CRYPTO_free(ptr noundef %29, ptr noundef @.str, i32 noundef 787)
  %30 = load ptr, ptr %2, align 8, !tbaa !8
  %31 = getelementptr inbounds nuw %struct.SSL_TEST_CTX, ptr %30, i32 0, i32 34
  %32 = load ptr, ptr %31, align 8, !tbaa !34
  call void @CRYPTO_free(ptr noundef %32, ptr noundef @.str, i32 noundef 788)
  %33 = load ptr, ptr %2, align 8, !tbaa !8
  call void @CRYPTO_free(ptr noundef %33, ptr noundef @.str, i32 noundef 789)
  br label %34

34:                                               ; preds = %6, %5
  ret void
}