; Function Attrs: nounwind uwtable
define dso_local void @SSL_TEST_CTX_free(ptr noundef %0) local_unnamed_addr #1 {
  %2 = icmp eq ptr %0, null
  br i1 %2, label %20, label %3

3:                                                ; preds = %1
  %4 = getelementptr inbounds nuw i8, ptr %0, i64 24
  tail call fastcc void @ssl_test_extra_conf_free_data(ptr noundef readonly %4)
  %5 = getelementptr inbounds nuw i8, ptr %0, i64 224
  tail call fastcc void @ssl_test_extra_conf_free_data(ptr noundef readonly %5)
  %6 = getelementptr inbounds nuw i8, ptr %0, i64 456
  %7 = load ptr, ptr %6, align 8, !tbaa !23
  tail call void @CRYPTO_free(ptr noundef %7, ptr noundef nonnull @.str, i32 noundef 782) #8
  %8 = getelementptr inbounds nuw i8, ptr %0, i64 464
  %9 = load ptr, ptr %8, align 8, !tbaa !24
  tail call void @CRYPTO_free(ptr noundef %9, ptr noundef nonnull @.str, i32 noundef 783) #8
  %10 = getelementptr inbounds nuw i8, ptr %0, i64 560
  %11 = load ptr, ptr %10, align 8, !tbaa !25
  tail call void @CRYPTO_free(ptr noundef %11, ptr noundef nonnull @.str, i32 noundef 784) #8
  %12 = getelementptr inbounds nuw i8, ptr %0, i64 496
  %13 = load ptr, ptr %12, align 8, !tbaa !26
  tail call void @OPENSSL_sk_pop_free(ptr noundef %13, ptr noundef nonnull @X509_NAME_free) #8
  %14 = getelementptr inbounds nuw i8, ptr %0, i64 520
  %15 = load ptr, ptr %14, align 8, !tbaa !27
  tail call void @OPENSSL_sk_pop_free(ptr noundef %15, ptr noundef nonnull @X509_NAME_free) #8
  %16 = getelementptr inbounds nuw i8, ptr %0, i64 552
  %17 = load ptr, ptr %16, align 8, !tbaa !28
  tail call void @CRYPTO_free(ptr noundef %17, ptr noundef nonnull @.str, i32 noundef 787) #8
  %18 = getelementptr inbounds nuw i8, ptr %0, i64 576
  %19 = load ptr, ptr %18, align 8, !tbaa !29
  tail call void @CRYPTO_free(ptr noundef %19, ptr noundef nonnull @.str, i32 noundef 788) #8
  tail call void @CRYPTO_free(ptr noundef nonnull %0, ptr noundef nonnull @.str, i32 noundef 789) #8
  br label %20

20:                                               ; preds = %1, %3
  ret void
}